(dp1
I100
((lp2
I86
aI84
aI82
aI80
aI82
aI94
aI83
aI72
aI95
aI69
aI93
aI90
aI75
aI87
aI74
aI89
aI95
aI89
aI75
aI72
aI90
aI87
aI85
aI83
aI86
aI85
aI93
aI82
aI87
aI84
aI78
aI89
aI86
aI78
aI83
aI88
aI82
aI80
aI86
aI89
aI82
aI90
aI89
aI74
aI89
aI84
aI84
aI91
aI82
aI72
aI91
aI85
aI78
aI83
aI80
aI78
aI75
aI82
aI86
aI82
aI83
aI85
aI84
aI80
aI73
aI81
aI78
aI82
aI79
aI82
aI73
aI81
aI79
aI85
aI77
aI74
aI74
aI70
aI80
aI79
aI97
aI68
aI80
aI97
aI93
aI67
aI83
aI84
aI86
aI78
aI84
aI87
aI87
aI84
aI89
aI76
aI81
aI80
aI89
aI78
a(lp3
I22
aI12
aI9
aI13
aI25
aI8
aI15
aI10
aI19
aI9
aI16
aI15
aI2
aI19
aI15
aI9
aI3
aI7
aI20
aI7
aI19
aI27
aI26
aI17
aI17
aI16
aI8
aI10
aI13
aI12
aI6
aI11
aI19
aI19
aI13
aI6
aI5
aI6
aI12
aI31
aI9
aI32
aI18
aI13
aI13
aI20
aI5
aI5
aI2
aI24
aI10
aI16
aI4
aI10
aI8
aI12
aI20
aI7
aI5
aI20
aI5
aI4
aI16
aI8
aI5
aI9
aI16
aI18
aI6
aI8
aI9
aI4
aI3
aI26
aI11
aI4
aI16
aI10
aI4
aI17
aI16
aI16
aI3
aI1
aI15
aI2
aI14
aI14
aI16
aI23
aI13
aI20
aI21
aI20
aI8
aI8
aI8
aI11
aI13
aI8
atp4
sI200
((lp5
I170
aI182
aI164
aI189
aI166
aI189
aI187
aI181
aI176
aI191
aI157
aI176
aI173
aI180
aI203
aI181
aI173
aI192
aI191
aI184
aI181
aI191
aI183
aI180
aI190
aI187
aI190
aI177
aI165
aI173
aI193
aI181
aI177
aI188
aI169
aI171
aI155
aI197
aI193
aI194
aI193
aI169
aI195
aI186
aI167
aI179
aI188
aI189
aI188
aI186
aI182
aI172
aI172
aI181
aI206
aI170
aI188
aI179
aI174
aI170
aI178
aI177
aI192
aI177
aI181
aI171
aI189
aI185
aI183
aI183
aI172
aI184
aI185
aI186
aI172
aI191
aI186
aI185
aI191
aI190
aI181
aI163
aI164
aI200
aI184
aI178
aI192
aI173
aI170
aI178
aI191
aI201
aI187
aI179
aI194
aI180
aI181
aI177
aI190
aI164
a(lp6
I66
aI58
aI69
aI59
aI32
aI58
aI60
aI28
aI65
aI35
aI42
aI70
aI28
aI51
aI101
aI62
aI42
aI59
aI70
aI47
aI53
aI52
aI30
aI55
aI54
aI43
aI42
aI60
aI44
aI55
aI46
aI60
aI49
aI67
aI51
aI39
aI27
aI72
aI50
aI87
aI87
aI39
aI61
aI89
aI41
aI58
aI44
aI76
aI54
aI59
aI61
aI47
aI49
aI43
aI49
aI44
aI64
aI29
aI39
aI52
aI34
aI33
aI47
aI54
aI28
aI53
aI75
aI43
aI93
aI82
aI75
aI51
aI76
aI60
aI44
aI32
aI48
aI39
aI60
aI54
aI65
aI39
aI54
aI36
aI44
aI50
aI61
aI46
aI20
aI53
aI64
aI59
aI65
aI35
aI68
aI74
aI59
aI64
aI61
aI28
atp7
sI300
((lp8
I289
aI273
aI274
aI281
aI272
aI297
aI275
aI276
aI265
aI291
aI282
aI288
aI285
aI270
aI257
aI279
aI305
aI274
aI283
aI288
aI291
aI297
aI287
aI274
aI279
aI294
aI282
aI271
aI273
aI279
aI269
aI291
aI268
aI268
aI287
aI268
aI292
aI273
aI300
aI267
aI276
aI273
aI272
aI263
aI289
aI268
aI275
aI294
aI287
aI278
aI273
aI289
aI273
aI271
aI260
aI285
aI276
aI280
aI288
aI272
aI253
aI301
aI257
aI282
aI271
aI294
aI297
aI282
aI271
aI268
aI260
aI256
aI274
aI286
aI285
aI270
aI252
aI310
aI276
aI257
aI283
aI287
aI287
aI286
aI283
aI273
aI268
aI277
aI282
aI271
aI277
aI297
aI280
aI276
aI299
aI291
aI272
aI271
aI275
aI260
a(lp9
I105
aI106
aI92
aI93
aI132
aI87
aI110
aI96
aI85
aI106
aI89
aI126
aI95
aI78
aI88
aI122
aI117
aI102
aI85
aI129
aI120
aI140
aI77
aI91
aI116
aI97
aI85
aI142
aI68
aI129
aI119
aI131
aI75
aI113
aI149
aI108
aI105
aI86
aI132
aI102
aI102
aI82
aI90
aI74
aI147
aI90
aI103
aI138
aI120
aI102
aI131
aI103
aI74
aI81
aI104
aI112
aI82
aI72
aI105
aI111
aI80
aI131
aI112
aI65
aI82
aI114
aI121
aI137
aI93
aI71
aI70
aI95
aI118
aI88
aI126
aI69
aI88
aI150
aI112
aI107
aI109
aI144
aI115
aI78
aI118
aI117
aI92
aI97
aI111
aI90
aI137
aI123
aI89
aI91
aI84
aI120
aI116
aI111
aI129
aI84
atp10
sI400
((lp11
I374
aI366
aI388
aI399
aI361
aI364
aI365
aI376
aI386
aI348
aI372
aI361
aI387
aI362
aI367
aI390
aI365
aI346
aI366
aI387
aI376
aI381
aI404
aI362
aI380
aI377
aI384
aI364
aI396
aI385
aI400
aI396
aI374
aI353
aI363
aI390
aI385
aI389
aI357
aI346
aI374
aI399
aI374
aI376
aI390
aI400
aI337
aI373
aI400
aI377
aI374
aI390
aI356
aI380
aI400
aI380
aI356
aI377
aI387
aI380
aI378
aI377
aI363
aI368
aI373
aI379
aI365
aI399
aI394
aI380
aI383
aI378
aI363
aI375
aI378
aI366
aI379
aI376
aI376
aI359
aI369
aI357
aI383
aI369
aI384
aI363
aI362
aI371
aI380
aI383
aI380
aI384
aI366
aI370
aI387
aI412
aI373
aI366
aI364
aI367
a(lp12
I164
aI110
aI158
aI193
aI153
aI167
aI178
aI159
aI176
aI114
aI173
aI126
aI174
aI135
aI184
aI197
aI185
aI114
aI171
aI158
aI170
aI170
aI197
aI151
aI183
aI136
aI139
aI164
aI174
aI148
aI140
aI202
aI109
aI135
aI129
aI153
aI114
aI169
aI159
aI110
aI162
aI162
aI132
aI186
aI120
aI185
aI123
aI176
aI151
aI123
aI154
aI135
aI175
aI150
aI167
aI149
aI153
aI152
aI161
aI182
aI183
aI195
aI161
aI195
aI170
aI187
aI134
aI179
aI122
aI107
aI186
aI156
aI169
aI177
aI190
aI162
aI201
aI146
aI186
aI134
aI121
aI153
aI179
aI131
aI197
aI143
aI130
aI193
aI174
aI128
aI207
aI187
aI111
aI174
aI197
aI142
aI186
aI131
aI109
aI173
atp13
sI500
((lp14
I452
aI491
aI509
aI480
aI477
aI495
aI488
aI466
aI492
aI445
aI444
aI466
aI473
aI466
aI493
aI475
aI469
aI500
aI459
aI482
aI494
aI496
aI476
aI460
aI468
aI473
aI485
aI477
aI488
aI474
aI479
aI467
aI476
aI485
aI467
aI474
aI470
aI483
aI476
aI479
aI454
aI457
aI451
aI470
aI476
aI451
aI498
aI517
aI496
aI490
aI461
aI496
aI465
aI465
aI474
aI464
aI474
aI513
aI476
aI488
aI482
aI479
aI481
aI512
aI481
aI468
aI454
aI445
aI471
aI461
aI469
aI478
aI470
aI474
aI465
aI496
aI488
aI471
aI459
aI476
aI465
aI481
aI478
aI457
aI456
aI478
aI483
aI511
aI506
aI468
aI453
aI466
aI490
aI479
aI497
aI501
aI459
aI448
aI481
aI466
a(lp15
I207
aI270
aI259
aI238
aI194
aI252
aI230
aI204
aI253
aI186
aI202
aI200
aI202
aI196
aI238
aI231
aI218
aI250
aI208
aI214
aI257
aI255
aI164
aI206
aI186
aI218
aI176
aI209
aI253
aI227
aI233
aI252
aI200
aI253
aI190
aI250
aI227
aI201
aI225
aI233
aI238
aI209
aI235
aI163
aI216
aI269
aI213
aI272
aI236
aI204
aI235
aI245
aI204
aI199
aI185
aI139
aI206
aI259
aI202
aI293
aI260
aI200
aI287
aI249
aI203
aI275
aI156
aI195
aI167
aI286
aI188
aI231
aI194
aI222
aI225
aI219
aI196
aI194
aI237
aI228
aI257
aI235
aI291
aI233
aI195
aI181
aI276
aI197
aI257
aI270
aI193
aI207
aI249
aI257
aI244
aI246
aI216
aI175
aI189
aI178
atp16
sI600
((lp17
I591
aI573
aI590
aI583
aI561
aI570
aI596
aI564
aI578
aI592
aI583
aI587
aI588
aI587
aI578
aI593
aI582
aI583
aI564
aI594
aI581
aI569
aI584
aI576
aI551
aI561
aI591
aI566
aI574
aI573
aI555
aI557
aI576
aI565
aI556
aI571
aI555
aI546
aI553
aI573
aI562
aI575
aI567
aI566
aI578
aI587
aI581
aI566
aI595
aI565
aI575
aI545
aI595
aI582
aI577
aI569
aI596
aI575
aI566
aI574
aI581
aI551
aI598
aI584
aI591
aI598
aI527
a(lp18
I278
aI292
aI301
aI324
aI250
aI221
aI344
aI227
aI296
aI323
aI324
aI322
aI293
aI300
aI266
aI305
aI259
aI325
aI201
aI352
aI352
aI228
aI238
aI334
aI245
aI325
aI356
aI338
aI321
aI282
aI243
aI284
aI236
aI319
aI309
aI282
aI272
aI268
aI220
aI258
aI297
aI204
aI305
aI285
aI300
aI317
aI317
aI259
aI301
aI282
aI346
aI256
aI286
aI317
aI302
aI281
aI303
aI344
aI258
aI280
aI273
aI203
aI311
aI255
aI359
aI316
aI233
atp19
s.