(dp1
I15
(I49612
I50000
tp2
sI16
(I49288
I50000
tp3
sI17
(I48744
I50000
tp4
sI18
(I48008
I50000
tp5
sI19
(I47056
I50000
tp6
sI20
(I45808
I50000
tp7
sI21
(I44380
I50000
tp8
sI22
(I42532
I50000
tp9
sI23
(I40597
I50000
tp10
sI24
(I38609
I50000
tp11
sI25
(I36182
I50000
tp12
sI26
(I33809
I50000
tp13
sI27
(I31354
I50000
tp14
sI28
(I28964
I50000
tp15
sI29
(I26390
I50000
tp16
sI30
(I24061
I50000
tp17
sI31
(I21792
I50000
tp18
sI32
(I19601
I50000
tp19
sI33
(I17459
I50000
tp20
sI34
(I15384
I50000
tp21
sI35
(I13844
I50000
tp22
sI36
(I11937
I50000
tp23
sI37
(I10472
I50000
tp24
sI38
(I9222
I50000
tp25
sI39
(I8123
I50000
tp26
sI40
(I6943
I50000
tp27
s.