(dp1
I32
(I37559
I50000
tp2
sI33
(I36421
I50000
tp3
sI34
(I35036
I50000
tp4
sI35
(I33947
I50000
tp5
sI36
(I32727
I50000
tp6
sI37
(I31346
I50000
tp7
sI38
(I29931
I50000
tp8
sI39
(I28876
I50000
tp9
sI40
(I27422
I50000
tp10
sI31
(I38966
I50000
tp11
s.