(dp1
I21
(I48164
I50000
tp2
sI22
(I47456
I50000
tp3
sI23
(I46821
I50000
tp4
sI24
(I46086
I50000
tp5
sI25
(I45210
I50000
tp6
sI26
(I44275
I50000
tp7
sI27
(I43221
I50000
tp8
sI28
(I42286
I50000
tp9
sI29
(I41192
I50000
tp10
sI30
(I40010
I50000
tp11
s.